; Function Attrs: nounwind uwtable
define dso_local noundef ptr @lpNextRandom(ptr noundef %0, ptr noundef %1, ptr noundef captures(none) %2, i32 noundef %3, i32 noundef %4) local_unnamed_addr #3 {
  %6 = alloca ptr, align 8
  %7 = icmp sgt i32 %4, 0
  br i1 %7, label %9, label %8, !prof !21

8:                                                ; preds = %5
  tail call void @_serverAssert(ptr noundef nonnull @.str.17, ptr noundef nonnull @.str.1, i32 noundef 1944) #20
  tail call void @abort() #21
  unreachable

9:                                                ; preds = %5
  %10 = load i32, ptr %2, align 4, !tbaa !17
  %11 = getelementptr inbounds nuw i8, ptr %0, i64 4
  %12 = load i8, ptr %11, align 1, !tbaa !5
  %13 = zext i8 %12 to i32
  %14 = getelementptr inbounds nuw i8, ptr %0, i64 5
  %15 = load i8, ptr %14, align 1, !tbaa !5
  %16 = zext i8 %15 to i32
  %17 = shl nuw nsw i32 %16, 8
  %18 = or disjoint i32 %17, %13
  %.not.i = icmp eq i32 %18, 65535
  br i1 %.not.i, label %19, label %lpLength.exit

19:                                               ; preds = %9
  %20 = getelementptr inbounds nuw i8, ptr %0, i64 6
  %21 = load i8, ptr %20, align 1, !tbaa !5
  %22 = icmp eq i8 %21, -1
  br i1 %22, label %._crit_edge.thread.i, label %23

23:                                               ; preds = %19
  %24 = load i32, ptr %0, align 1
  %25 = zext i32 %24 to i64
  call void @llvm.lifetime.start.p0(i64 8, ptr nonnull %6)
  store ptr %20, ptr %6, align 8, !tbaa !13
  %26 = call i32 @lpValidateNext(ptr noundef nonnull %0, ptr noundef nonnull %6, i64 noundef %25)
  %.not.i.i.i = icmp eq i32 %26, 0
  br i1 %.not.i.i.i, label %27, label %.lr.ph.preheader.i, !prof !12

27:                                               ; preds = %23
  tail call void @_serverAssert(ptr noundef nonnull @.str.30, ptr noundef nonnull @.str.1, i32 noundef 1664) #20
  tail call void @abort() #21
  unreachable

.lr.ph.preheader.i:                               ; preds = %23
  call void @llvm.lifetime.end.p0(i64 8, ptr nonnull %6)
  br label %.lr.ph.i

.lr.ph.i:                                         ; preds = %.lr.ph.i, %.lr.ph.preheader.i
  %.021.i = phi ptr [ %29, %.lr.ph.i ], [ %20, %.lr.ph.preheader.i ]
  %.01520.i = phi i32 [ %28, %.lr.ph.i ], [ 0, %.lr.ph.preheader.i ]
  %28 = add i32 %.01520.i, 1
  %29 = tail call ptr @lpNext(ptr noundef nonnull %0, ptr noundef nonnull %.021.i)
  %.not18.i = icmp eq ptr %29, null
  br i1 %.not18.i, label %._crit_edge.i, label %.lr.ph.i, !llvm.loop !16

._crit_edge.i:                                    ; preds = %.lr.ph.i
  %30 = icmp ult i32 %28, 65535
  br i1 %30, label %._crit_edge.thread.i, label %lpLength.exit

._crit_edge.thread.i:                             ; preds = %._crit_edge.i, %19
  %.015.lcssa25.i = phi i32 [ %28, %._crit_edge.i ], [ 0, %19 ]
  %31 = trunc i32 %.015.lcssa25.i to i8
  store i8 %31, ptr %11, align 1, !tbaa !5
  %32 = lshr i32 %.015.lcssa25.i, 8
  %33 = trunc nuw i32 %32 to i8
  store i8 %33, ptr %14, align 1, !tbaa !5
  br label %lpLength.exit

lpLength.exit:                                    ; preds = %9, %._crit_edge.i, %._crit_edge.thread.i
  %.016.in.i = phi i32 [ %18, %9 ], [ %.015.lcssa25.i, %._crit_edge.thread.i ], [ %28, %._crit_edge.i ]
  %34 = icmp ult i32 %10, %.016.in.i
  %35 = icmp ne ptr %1, null
  %36 = and i1 %34, %35
  br i1 %36, label %.lr.ph, label %.loopexit

.lr.ph:                                           ; preds = %lpLength.exit
  %37 = uitofp i32 %3 to double
  br label %38

38:                                               ; preds = %.lr.ph, %.backedge
  %.02638 = phi ptr [ %1, %.lr.ph ], [ %40, %.backedge ]
  %.02837 = phi i32 [ %10, %.lr.ph ], [ %.028.be, %.backedge ]
  %39 = urem i32 %.02837, %4
  %.not = icmp eq i32 %39, 0
  br i1 %.not, label %44, label %.backedge

.backedge:                                        ; preds = %38, %44
  %40 = tail call ptr @lpNext(ptr noundef %0, ptr noundef nonnull %.02638)
  %.028.be = add nuw i32 %.02837, 1
  %41 = icmp ult i32 %.028.be, %.016.in.i
  %42 = icmp ne ptr %40, null
  %43 = and i1 %41, %42
  br i1 %43, label %38, label %.loopexit, !llvm.loop !58

44:                                               ; preds = %38
  %45 = sub i32 %.016.in.i, %.02837
  %46 = udiv i32 %45, %4
  %47 = tail call i32 @rand() #20
  %48 = sitofp i32 %47 to double
  %49 = fdiv double %48, 0x41DFFFFFFFC00000
  %50 = uitofp i32 %46 to double
  %51 = fdiv double %37, %50
  %52 = fcmp ugt double %49, %51
  br i1 %52, label %.backedge, label %.thread

.thread:                                          ; preds = %44
  store i32 %.02837, ptr %2, align 4, !tbaa !17
  br label %.loopexit

.loopexit:                                        ; preds = %.backedge, %lpLength.exit, %.thread
  %.2 = phi ptr [ %.02638, %.thread ], [ null, %lpLength.exit ], [ null, %.backedge ]
  ret ptr %.2
}